; Function Attrs: mustprogress uwtable
define noundef ptr @casadi_c_sparsity_in_id(i32 noundef %0, i64 noundef %1) local_unnamed_addr #5 personality ptr @__gxx_personality_v0 {
  %3 = tail call noundef i32 @_Z11sanitize_idi(i32 noundef %0)
  %.not = icmp eq i32 %3, 0
  br i1 %.not, label %4, label %40

4:                                                ; preds = %2
  %5 = sext i32 %0 to i64
  %6 = load ptr, ptr getelementptr inbounds nuw (i8, ptr @_ZL25casadi_c_loaded_functions, i64 8), align 8, !tbaa !9
  %7 = load ptr, ptr @_ZL25casadi_c_loaded_functions, align 8, !tbaa !3
  %8 = ptrtoint ptr %6 to i64
  %9 = ptrtoint ptr %7 to i64
  %10 = sub i64 %8, %9
  %11 = ashr exact i64 %10, 3
  %.not.i.i = icmp ugt i64 %11, %5
  br i1 %.not.i.i, label %13, label %12

12:                                               ; preds = %4
  invoke void (ptr, ...) @_ZSt24__throw_out_of_range_fmtPKcz(ptr noundef nonnull @.str.20, i64 noundef %5, i64 noundef %11) #25
          to label %.noexc unwind label %18

.noexc:                                           ; preds = %12
  unreachable

13:                                               ; preds = %4
  %14 = getelementptr inbounds nuw %"class.casadi::Function", ptr %7, i64 %5
  %15 = invoke noundef nonnull align 8 dereferenceable(8) ptr @_ZNK6casadi8Function11sparsity_inEx(ptr noundef nonnull align 8 dereferenceable(8) %14, i64 noundef %1)
          to label %16 unwind label %18

16:                                               ; preds = %13
  %17 = invoke noundef ptr @_ZNK6casadi8SparsitycvPKxEv(ptr noundef nonnull align 8 dereferenceable(8) %15)
          to label %40 unwind label %18

18:                                               ; preds = %12, %16, %13
  %19 = landingpad { ptr, i32 }
          catch ptr @_ZTISt9exception
          catch ptr null
  %20 = extractvalue { ptr, i32 } %19, 0
  %21 = extractvalue { ptr, i32 } %19, 1
  %22 = tail call i32 @llvm.eh.typeid.for.p0(ptr nonnull @_ZTISt9exception) #23
  %23 = icmp eq i32 %21, %22
  %24 = tail call ptr @__cxa_begin_catch(ptr %20) #23
  br i1 %23, label %25, label %33

25:                                               ; preds = %18
  %26 = load ptr, ptr %24, align 8, !tbaa !32
  %27 = getelementptr inbounds nuw i8, ptr %26, i64 16
  %28 = load ptr, ptr %27, align 8
  %29 = tail call noundef ptr %28(ptr noundef nonnull align 8 dereferenceable(8) %24) #23
  %30 = invoke noundef nonnull align 8 dereferenceable(8) ptr @_ZStlsISt11char_traitsIcEERSt13basic_ostreamIcT_ES5_PKc(ptr noundef nonnull align 8 dereferenceable(8) @_ZSt4cerr, ptr noundef %29)
          to label %31 unwind label %38

31:                                               ; preds = %25
  %32 = invoke noundef nonnull align 8 dereferenceable(8) ptr @_ZSt4endlIcSt11char_traitsIcEERSt13basic_ostreamIT_T0_ES6_(ptr noundef nonnull align 8 dereferenceable(8) %30)
          to label %.sink.split unwind label %38

33:                                               ; preds = %18
  %34 = invoke noundef nonnull align 8 dereferenceable(8) ptr @_ZSt16__ostream_insertIcSt11char_traitsIcEERSt13basic_ostreamIT_T0_ES6_PKS3_l(ptr noundef nonnull align 8 dereferenceable(8) @_ZSt4cerr, ptr noundef nonnull @.str.8, i64 noundef 18)
          to label %_ZStlsISt11char_traitsIcEERSt13basic_ostreamIcT_ES5_PKc.exit unwind label %36

_ZStlsISt11char_traitsIcEERSt13basic_ostreamIcT_ES5_PKc.exit: ; preds = %33
  %35 = invoke noundef nonnull align 8 dereferenceable(8) ptr @_ZSt4endlIcSt11char_traitsIcEERSt13basic_ostreamIT_T0_ES6_(ptr noundef nonnull align 8 dereferenceable(8) @_ZSt4cerr)
          to label %.sink.split unwind label %36

36:                                               ; preds = %_ZStlsISt11char_traitsIcEERSt13basic_ostreamIcT_ES5_PKc.exit, %33
  %37 = landingpad { ptr, i32 }
          cleanup
  invoke void @__cxa_end_catch()
          to label %41 unwind label %42

38:                                               ; preds = %31, %25
  %39 = landingpad { ptr, i32 }
          cleanup
  invoke void @__cxa_end_catch()
          to label %41 unwind label %42

.sink.split:                                      ; preds = %_ZStlsISt11char_traitsIcEERSt13basic_ostreamIcT_ES5_PKc.exit, %31
  tail call void @__cxa_end_catch()
  br label %40

40:                                               ; preds = %.sink.split, %16, %2
  %.0 = phi ptr [ null, %2 ], [ %17, %16 ], [ null, %.sink.split ]
  ret ptr %.0

41:                                               ; preds = %38, %36
  %.pn = phi { ptr, i32 } [ %37, %36 ], [ %39, %38 ]
  resume { ptr, i32 } %.pn

42:                                               ; preds = %38, %36
  %43 = landingpad { ptr, i32 }
          catch ptr null
  %44 = extractvalue { ptr, i32 } %43, 0
  tail call void @__clang_call_terminate(ptr %44) #26
  unreachable
}